target datalayout = "e-m:e-p270:32:32-p271:32:32-p272:64:64-i64:64-i128:128-f80:128-n8:16:32:64-S128"
target triple = "x86_64-pc-linux-gnu"

; Function Attrs: nounwind uwtable
define void @cblas_drotm(i32 noundef %0, ptr noundef %1, i32 noundef %2, ptr noundef %3, i32 noundef %4, ptr noundef %5) #0 {
  %7 = alloca i32, align 4
  %8 = alloca ptr, align 8
  %9 = alloca i32, align 4
  %10 = alloca ptr, align 8
  %11 = alloca i32, align 4
  %12 = alloca ptr, align 8
  store i32 %0, ptr %7, align 4, !tbaa !3
  store ptr %1, ptr %8, align 8, !tbaa !7
  store i32 %2, ptr %9, align 4, !tbaa !3
  store ptr %3, ptr %10, align 8, !tbaa !7
  store i32 %4, ptr %11, align 4, !tbaa !3
  store ptr %5, ptr %12, align 8, !tbaa !7
  %13 = load i32, ptr %7, align 4, !tbaa !3
  %14 = sext i32 %13 to i64
  %15 = load ptr, ptr %8, align 8, !tbaa !7
  %16 = load i32, ptr %9, align 4, !tbaa !3
  %17 = sext i32 %16 to i64
  %18 = load ptr, ptr %10, align 8, !tbaa !7
  %19 = load i32, ptr %11, align 4, !tbaa !3
  %20 = sext i32 %19 to i64
  %21 = load ptr, ptr %12, align 8, !tbaa !7
  %22 = call i32 @drotm_k(i64 noundef %14, ptr noundef %15, i64 noundef %17, ptr noundef %18, i64 noundef %20, ptr noundef %21)
  ret void
}

declare i32 @drotm_k(i64 noundef, ptr noundef, i64 noundef, ptr noundef, i64 noundef, ptr noundef) #1


!llvm.module.flags = !{!0, !1, !2}

!0 = !{i32 1, !"wchar_size", i32 4}
!1 = !{i32 8, !"PIC Level", i32 2}
!2 = !{i32 7, !"uwtable", i32 2}
!3 = !{!4, !4, i64 0}
!4 = !{!"int", !5, i64 0}
!5 = !{!"omnipotent char", !6, i64 0}
!6 = !{!"Simple C/C++ TBAA"}
!7 = !{!8, !8, i64 0}
!8 = !{!"p1 double", !9, i64 0}
!9 = !{!"any pointer", !5, i64 0}
