; ModuleID = 'bench/openblas/original/cblas_drotm.ll'
source_filename = "bench/openblas/original/cblas_drotm.ll"
target datalayout = "e-m:e-p270:32:32-p271:32:32-p272:64:64-i64:64-i128:128-f80:128-n8:16:32:64-S128"
target triple = "x86_64-pc-linux-gnu"

; Function Attrs: nounwind uwtable
define void @cblas_drotm(i32 noundef %0, ptr noundef %1, i32 noundef %2, ptr noundef %3, i32 noundef %4, ptr noundef %5) local_unnamed_addr #0 {
  %7 = sext i32 %0 to i64
  %8 = sext i32 %2 to i64
  %9 = sext i32 %4 to i64
  %10 = tail call i32 @drotm_k(i64 noundef %7, ptr noundef %1, i64 noundef %8, ptr noundef %3, i64 noundef %9, ptr noundef %5) #2
  ret void
}

declare i32 @drotm_k(i64 noundef, ptr noundef, i64 noundef, ptr noundef, i64 noundef, ptr noundef) local_unnamed_addr #1


!llvm.module.flags = !{!0, !1, !2}

!0 = !{i32 1, !"wchar_size", i32 4}
!1 = !{i32 8, !"PIC Level", i32 2}
!2 = !{i32 7, !"uwtable", i32 2}
